target datalayout = "e-m:e-p270:32:32-p271:32:32-p272:64:64-i64:64-i128:128-f80:128-n8:16:32:64-S128"
target triple = "x86_64-pc-linux-gnu"

%struct.tok_state = type { ptr, ptr, ptr, i32, ptr, ptr, ptr, ptr, i32, ptr, i32, i32, [100 x i32], i32, i32, ptr, ptr, i32, i32, i32, i32, i32, [200 x i8], [200 x i32], [200 x i32], ptr, [100 x i32], i32, i32, ptr, i32, ptr, ptr, ptr, ptr, ptr, ptr, ptr, ptr, i32, i32, ptr, i32, [150 x %struct._tokenizer_mode], i32, i32, i32, i32 }
%struct._tokenizer_mode = type { i32, i32, i32, i8, i32, i32, ptr, ptr, i32, i64, i64, i64, i64, ptr, i32, i32 }

@PyExc_SyntaxError = external global ptr, align 8
@.str.6 = private unnamed_addr constant [137 x i8] c"Non-UTF-8 code starting with '\\x%.2x' in file %U on line %i, but no encoding declared; see https://peps.python.org/pep-0263/ for details\00", align 1

; Function Attrs: nounwind uwtable
define internal i32 @valid_utf8(ptr noundef %0) #0 {
  %2 = alloca i32, align 4
  %3 = alloca ptr, align 8
  %4 = alloca i32, align 4
  %5 = alloca i32, align 4
  %6 = alloca i32, align 4
  store ptr %0, ptr %3, align 8, !tbaa !9
  call void @llvm.lifetime.start.p0(i64 4, ptr %4) #8
  store i32 0, ptr %4, align 4, !tbaa !11
  call void @llvm.lifetime.start.p0(i64 4, ptr %5) #8
  %7 = load ptr, ptr %3, align 8, !tbaa !9
  %8 = load i8, ptr %7, align 1, !tbaa !34
  %9 = zext i8 %8 to i32
  %10 = icmp slt i32 %9, 128
  br i1 %10, label %11, label %12

11:                                               ; preds = %1
  store i32 1, ptr %2, align 4
  store i32 1, ptr %6, align 4
  br label %111

12:                                               ; preds = %1
  %13 = load ptr, ptr %3, align 8, !tbaa !9
  %14 = load i8, ptr %13, align 1, !tbaa !34
  %15 = zext i8 %14 to i32
  %16 = icmp slt i32 %15, 224
  br i1 %16, label %17, label %24

17:                                               ; preds = %12
  %18 = load ptr, ptr %3, align 8, !tbaa !9
  %19 = load i8, ptr %18, align 1, !tbaa !34
  %20 = zext i8 %19 to i32
  %21 = icmp slt i32 %20, 194
  br i1 %21, label %22, label %23

22:                                               ; preds = %17
  store i32 0, ptr %2, align 4
  store i32 1, ptr %6, align 4
  br label %111

23:                                               ; preds = %17
  store i32 1, ptr %4, align 4, !tbaa !11
  br label %81

24:                                               ; preds = %12
  %25 = load ptr, ptr %3, align 8, !tbaa !9
  %26 = load i8, ptr %25, align 1, !tbaa !34
  %27 = zext i8 %26 to i32
  %28 = icmp slt i32 %27, 240
  br i1 %28, label %29, label %55

29:                                               ; preds = %24
  %30 = load ptr, ptr %3, align 8, !tbaa !9
  %31 = load i8, ptr %30, align 1, !tbaa !34
  %32 = zext i8 %31 to i32
  %33 = icmp eq i32 %32, 224
  br i1 %33, label %34, label %41

34:                                               ; preds = %29
  %35 = load ptr, ptr %3, align 8, !tbaa !9
  %36 = getelementptr i8, ptr %35, i64 1
  %37 = load i8, ptr %36, align 1, !tbaa !34
  %38 = zext i8 %37 to i32
  %39 = icmp slt i32 %38, 160
  br i1 %39, label %40, label %41

40:                                               ; preds = %34
  store i32 0, ptr %2, align 4
  store i32 1, ptr %6, align 4
  br label %111

41:                                               ; preds = %34, %29
  %42 = load ptr, ptr %3, align 8, !tbaa !9
  %43 = load i8, ptr %42, align 1, !tbaa !34
  %44 = zext i8 %43 to i32
  %45 = icmp eq i32 %44, 237
  br i1 %45, label %46, label %53

46:                                               ; preds = %41
  %47 = load ptr, ptr %3, align 8, !tbaa !9
  %48 = getelementptr i8, ptr %47, i64 1
  %49 = load i8, ptr %48, align 1, !tbaa !34
  %50 = zext i8 %49 to i32
  %51 = icmp sge i32 %50, 160
  br i1 %51, label %52, label %53

52:                                               ; preds = %46
  store i32 0, ptr %2, align 4
  store i32 1, ptr %6, align 4
  br label %111

53:                                               ; preds = %46, %41
  br label %54

54:                                               ; preds = %53
  store i32 2, ptr %4, align 4, !tbaa !11
  br label %80

55:                                               ; preds = %24
  %56 = load ptr, ptr %3, align 8, !tbaa !9
  %57 = load i8, ptr %56, align 1, !tbaa !34
  %58 = zext i8 %57 to i32
  %59 = icmp slt i32 %58, 245
  br i1 %59, label %60, label %78

60:                                               ; preds = %55
  %61 = load ptr, ptr %3, align 8, !tbaa !9
  %62 = getelementptr i8, ptr %61, i64 1
  %63 = load i8, ptr %62, align 1, !tbaa !34
  %64 = zext i8 %63 to i32
  %65 = icmp slt i32 %64, 144
  br i1 %65, label %66, label %71

66:                                               ; preds = %60
  %67 = load ptr, ptr %3, align 8, !tbaa !9
  %68 = load i8, ptr %67, align 1, !tbaa !34
  %69 = zext i8 %68 to i32
  %70 = icmp eq i32 %69, 240
  br i1 %70, label %76, label %77

71:                                               ; preds = %60
  %72 = load ptr, ptr %3, align 8, !tbaa !9
  %73 = load i8, ptr %72, align 1, !tbaa !34
  %74 = zext i8 %73 to i32
  %75 = icmp eq i32 %74, 244
  br i1 %75, label %76, label %77

76:                                               ; preds = %71, %66
  store i32 0, ptr %2, align 4
  store i32 1, ptr %6, align 4
  br label %111

77:                                               ; preds = %71, %66
  store i32 3, ptr %4, align 4, !tbaa !11
  br label %79

78:                                               ; preds = %55
  store i32 0, ptr %2, align 4
  store i32 1, ptr %6, align 4
  br label %111

79:                                               ; preds = %77
  br label %80

80:                                               ; preds = %79, %54
  br label %81

81:                                               ; preds = %80, %23
  br label %82

82:                                               ; preds = %81
  %83 = load i32, ptr %4, align 4, !tbaa !11
  %84 = add i32 %83, 1
  store i32 %84, ptr %5, align 4, !tbaa !11
  br label %85

85:                                               ; preds = %106, %82
  %86 = load i32, ptr %4, align 4, !tbaa !11
  %87 = icmp ne i32 %86, 0
  br i1 %87, label %88, label %109

88:                                               ; preds = %85
  %89 = load ptr, ptr %3, align 8, !tbaa !9
  %90 = load i32, ptr %4, align 4, !tbaa !11
  %91 = sext i32 %90 to i64
  %92 = getelementptr i8, ptr %89, i64 %91
  %93 = load i8, ptr %92, align 1, !tbaa !34
  %94 = zext i8 %93 to i32
  %95 = icmp slt i32 %94, 128
  br i1 %95, label %104, label %96

96:                                               ; preds = %88
  %97 = load ptr, ptr %3, align 8, !tbaa !9
  %98 = load i32, ptr %4, align 4, !tbaa !11
  %99 = sext i32 %98 to i64
  %100 = getelementptr i8, ptr %97, i64 %99
  %101 = load i8, ptr %100, align 1, !tbaa !34
  %102 = zext i8 %101 to i32
  %103 = icmp sge i32 %102, 192
  br i1 %103, label %104, label %105

104:                                              ; preds = %96, %88
  store i32 0, ptr %2, align 4
  store i32 1, ptr %6, align 4
  br label %111

105:                                              ; preds = %96
  br label %106

106:                                              ; preds = %105
  %107 = load i32, ptr %4, align 4, !tbaa !11
  %108 = add i32 %107, -1
  store i32 %108, ptr %4, align 4, !tbaa !11
  br label %85, !llvm.loop !49

109:                                              ; preds = %85
  %110 = load i32, ptr %5, align 4, !tbaa !11
  store i32 %110, ptr %2, align 4
  store i32 1, ptr %6, align 4
  br label %111

111:                                              ; preds = %109, %104, %78, %76, %52, %40, %22, %11
  call void @llvm.lifetime.end.p0(i64 4, ptr %5) #8
  call void @llvm.lifetime.end.p0(i64 4, ptr %4) #8
  %112 = load i32, ptr %2, align 4
  ret i32 %112
}

; Function Attrs: nounwind uwtable
define hidden i32 @_PyTokenizer_ensure_utf8(ptr noundef %0, ptr noundef %1) #0 {
  %3 = alloca i32, align 4
  %4 = alloca ptr, align 8
  %5 = alloca ptr, align 8
  %6 = alloca i32, align 4
  %7 = alloca ptr, align 8
  %8 = alloca i32, align 4
  %9 = alloca i32, align 4
  store ptr %0, ptr %4, align 8, !tbaa !9
  store ptr %1, ptr %5, align 8, !tbaa !4
  call void @llvm.lifetime.start.p0(i64 4, ptr %6) #8
  store i32 0, ptr %6, align 4, !tbaa !11
  call void @llvm.lifetime.start.p0(i64 8, ptr %7) #8
  call void @llvm.lifetime.start.p0(i64 4, ptr %8) #8
  %10 = load ptr, ptr %4, align 8, !tbaa !9
  store ptr %10, ptr %7, align 8, !tbaa !9
  br label %11

11:                                               ; preds = %24, %2
  %12 = load ptr, ptr %7, align 8, !tbaa !9
  %13 = load i8, ptr %12, align 1, !tbaa !34
  %14 = icmp ne i8 %13, 0
  br i1 %14, label %15, label %29

15:                                               ; preds = %11
  %16 = load ptr, ptr %7, align 8, !tbaa !9
  %17 = call i32 @valid_utf8(ptr noundef %16)
  store i32 %17, ptr %8, align 4, !tbaa !11
  %18 = icmp ne i32 %17, 0
  br i1 %18, label %23, label %19

19:                                               ; preds = %15
  %20 = load ptr, ptr %7, align 8, !tbaa !9
  %21 = load i8, ptr %20, align 1, !tbaa !34
  %22 = zext i8 %21 to i32
  store i32 %22, ptr %6, align 4, !tbaa !11
  br label %29

23:                                               ; preds = %15
  br label %24

24:                                               ; preds = %23
  %25 = load i32, ptr %8, align 4, !tbaa !11
  %26 = load ptr, ptr %7, align 8, !tbaa !9
  %27 = sext i32 %25 to i64
  %28 = getelementptr i8, ptr %26, i64 %27
  store ptr %28, ptr %7, align 8, !tbaa !9
  br label %11, !llvm.loop !48

29:                                               ; preds = %19, %11
  %30 = load i32, ptr %6, align 4, !tbaa !11
  %31 = icmp ne i32 %30, 0
  br i1 %31, label %32, label %42

32:                                               ; preds = %29
  %33 = load ptr, ptr @PyExc_SyntaxError, align 8, !tbaa !19
  %34 = load i32, ptr %6, align 4, !tbaa !11
  %35 = load ptr, ptr %5, align 8, !tbaa !4
  %36 = getelementptr inbounds nuw %struct.tok_state, ptr %35, i32 0, i32 25
  %37 = load ptr, ptr %36, align 8, !tbaa !24
  %38 = load ptr, ptr %5, align 8, !tbaa !4
  %39 = getelementptr inbounds nuw %struct.tok_state, ptr %38, i32 0, i32 17
  %40 = load i32, ptr %39, align 8, !tbaa !25
  %41 = call ptr (ptr, ptr, ...) @PyErr_Format(ptr noundef %33, ptr noundef @.str.6, i32 noundef %34, ptr noundef %37, i32 noundef %40)
  store i32 0, ptr %3, align 4
  store i32 1, ptr %9, align 4
  br label %43

42:                                               ; preds = %29
  store i32 1, ptr %3, align 4
  store i32 1, ptr %9, align 4
  br label %43

43:                                               ; preds = %42, %32
  call void @llvm.lifetime.end.p0(i64 4, ptr %8) #8
  call void @llvm.lifetime.end.p0(i64 8, ptr %7) #8
  call void @llvm.lifetime.end.p0(i64 4, ptr %6) #8
  %44 = load i32, ptr %3, align 4
  ret i32 %44
}