; Function Attrs: nounwind uwtable
define hidden range(i32 0, 2) i32 @_PyTokenizer_ensure_utf8(ptr noundef readonly captures(none) %0, ptr noundef readonly captures(none) %1) local_unnamed_addr #0 {
  %3 = load i8, ptr %0, align 1, !tbaa !22
  %.not24 = icmp eq i8 %3, 0
  br i1 %.not24, label %.thread, label %.lr.ph

.lr.ph:                                           ; preds = %2, %valid_utf8.exit
  %4 = phi i8 [ %40, %valid_utf8.exit ], [ %3, %2 ]
  %.01025 = phi ptr [ %39, %valid_utf8.exit ], [ %0, %2 ]
  %5 = icmp sgt i8 %4, -1
  br i1 %5, label %valid_utf8.exit, label %6

6:                                                ; preds = %.lr.ph
  %7 = icmp samesign ult i8 %4, -32
  br i1 %7, label %8, label %10

8:                                                ; preds = %6
  %9 = icmp samesign ult i8 %4, -62
  br i1 %9, label %.thread19, label %.thread.i

10:                                               ; preds = %6
  %11 = icmp samesign ult i8 %4, -16
  br i1 %11, label %12, label %21

12:                                               ; preds = %10
  switch i8 %4, label %.thread.i [
    i8 -32, label %13
    i8 -19, label %17
  ]

13:                                               ; preds = %12
  %14 = getelementptr i8, ptr %.01025, i64 1
  %15 = load i8, ptr %14, align 1, !tbaa !22
  %16 = icmp ult i8 %15, -96
  br i1 %16, label %.thread19, label %.thread.i

17:                                               ; preds = %12
  %18 = getelementptr i8, ptr %.01025, i64 1
  %19 = load i8, ptr %18, align 1, !tbaa !22
  %20 = icmp ugt i8 %19, -97
  br i1 %20, label %.thread19, label %.thread.i

21:                                               ; preds = %10
  %22 = icmp samesign ult i8 %4, -11
  br i1 %22, label %23, label %.thread19

23:                                               ; preds = %21
  %24 = getelementptr i8, ptr %.01025, i64 1
  %25 = load i8, ptr %24, align 1, !tbaa !22
  %26 = icmp ult i8 %25, -112
  br i1 %26, label %27, label %29

27:                                               ; preds = %23
  %28 = icmp eq i8 %4, -16
  br i1 %28, label %.thread19, label %.thread.i

29:                                               ; preds = %23
  %30 = icmp eq i8 %4, -12
  br i1 %30, label %.thread19, label %.thread.i

.thread.i:                                        ; preds = %29, %27, %17, %13, %12, %8
  %.020.i = phi i32 [ 1, %8 ], [ 2, %17 ], [ 3, %29 ], [ 3, %27 ], [ 2, %13 ], [ 2, %12 ]
  %31 = add nuw nsw i32 %.020.i, 1
  %32 = zext nneg i32 %.020.i to i64
  br label %35

33:                                               ; preds = %35
  %indvars.iv.next = add nsw i64 %indvars.iv, -1
  %34 = icmp eq i64 %indvars.iv.next, 0
  br i1 %34, label %valid_utf8.exit.loopexit, label %35, !llvm.loop !43

35:                                               ; preds = %33, %.thread.i
  %indvars.iv = phi i64 [ %indvars.iv.next, %33 ], [ %32, %.thread.i ]
  %36 = getelementptr i8, ptr %.01025, i64 %indvars.iv
  %37 = load i8, ptr %36, align 1, !tbaa !22
  %or.cond.i = icmp sgt i8 %37, -65
  br i1 %or.cond.i, label %.thread19, label %33

valid_utf8.exit.loopexit:                         ; preds = %33
  %38 = zext nneg i32 %31 to i64
  br label %valid_utf8.exit

valid_utf8.exit:                                  ; preds = %valid_utf8.exit.loopexit, %.lr.ph
  %.0.i = phi i64 [ 1, %.lr.ph ], [ %38, %valid_utf8.exit.loopexit ]
  %39 = getelementptr i8, ptr %.01025, i64 %.0.i
  %40 = load i8, ptr %39, align 1, !tbaa !22
  %.not = icmp eq i8 %40, 0
  br i1 %.not, label %.thread, label %.lr.ph, !llvm.loop !44

.thread19:                                        ; preds = %8, %21, %13, %17, %29, %27, %35
  %41 = zext i8 %4 to i32
  %42 = load ptr, ptr @PyExc_SyntaxError, align 8, !tbaa !25
  %43 = getelementptr inbounds nuw i8, ptr %1, i64 2336
  %44 = load ptr, ptr %43, align 8, !tbaa !23
  %45 = getelementptr inbounds nuw i8, ptr %1, i64 512
  %46 = load i32, ptr %45, align 8, !tbaa !24
  %47 = tail call ptr (ptr, ptr, ...) @PyErr_Format(ptr noundef %42, ptr noundef nonnull @.str.6, i32 noundef %41, ptr noundef %44, i32 noundef %46) #9
  br label %.thread

.thread:                                          ; preds = %valid_utf8.exit, %2, %.thread19
  %.0 = phi i32 [ 0, %.thread19 ], [ 1, %2 ], [ 1, %valid_utf8.exit ]
  ret i32 %.0
}